target datalayout = "e-m:e-p270:32:32-p271:32:32-p272:64:64-i64:64-i128:128-f80:128-n8:16:32:64-S128"
target triple = "x86_64-pc-linux-gnu"

%struct.decNumber = type { i32, i32, i8, [1 x i16] }
%struct.decContext = type { i32, i32, i32, i32, i32, i32, i8 }

@DECPOWERS = external constant [10 x i32], align 16

; Function Attrs: nounwind uwtable
define internal void @decSetMaxValue(ptr noundef %0, ptr noundef %1) #0 {
  %3 = alloca ptr, align 8
  %4 = alloca ptr, align 8
  %5 = alloca ptr, align 8
  %6 = alloca i32, align 4
  store ptr %0, ptr %3, align 8, !tbaa !4
  store ptr %1, ptr %4, align 8, !tbaa !4
  call void @llvm.lifetime.start.p0(i64 8, ptr %5) #7
  call void @llvm.lifetime.start.p0(i64 4, ptr %6) #7
  %7 = load ptr, ptr %4, align 8, !tbaa !4
  %8 = getelementptr inbounds nuw %struct.decContext, ptr %7, i32 0, i32 0
  %9 = load i32, ptr %8, align 4, !tbaa !33
  store i32 %9, ptr %6, align 4, !tbaa !8
  %10 = load i32, ptr %6, align 4, !tbaa !8
  %11 = load ptr, ptr %3, align 8, !tbaa !4
  %12 = getelementptr inbounds nuw %struct.decNumber, ptr %11, i32 0, i32 0
  store i32 %10, ptr %12, align 4, !tbaa !18
  %13 = load ptr, ptr %3, align 8, !tbaa !4
  %14 = getelementptr inbounds nuw %struct.decNumber, ptr %13, i32 0, i32 3
  %15 = getelementptr inbounds [1 x i16], ptr %14, i64 0, i64 0
  store ptr %15, ptr %5, align 8, !tbaa !12
  br label %16

16:                                               ; preds = %32, %2
  %17 = load i32, ptr %6, align 4, !tbaa !8
  %18 = icmp sgt i32 %17, 3
  br i1 %18, label %19, label %21

19:                                               ; preds = %16
  %20 = load ptr, ptr %5, align 8, !tbaa !12
  store i16 999, ptr %20, align 2, !tbaa !14
  br label %29

21:                                               ; preds = %16
  %22 = load i32, ptr %6, align 4, !tbaa !8
  %23 = sext i32 %22 to i64
  %24 = getelementptr inbounds [10 x i32], ptr @DECPOWERS, i64 0, i64 %23
  %25 = load i32, ptr %24, align 4, !tbaa !8
  %26 = sub i32 %25, 1
  %27 = trunc i32 %26 to i16
  %28 = load ptr, ptr %5, align 8, !tbaa !12
  store i16 %27, ptr %28, align 2, !tbaa !14
  br label %35

29:                                               ; preds = %19
  %30 = load i32, ptr %6, align 4, !tbaa !8
  %31 = sub nsw i32 %30, 3
  store i32 %31, ptr %6, align 4, !tbaa !8
  br label %32

32:                                               ; preds = %29
  %33 = load ptr, ptr %5, align 8, !tbaa !12
  %34 = getelementptr inbounds nuw i16, ptr %33, i32 1
  store ptr %34, ptr %5, align 8, !tbaa !12
  br label %16

35:                                               ; preds = %21
  %36 = load ptr, ptr %3, align 8, !tbaa !4
  %37 = getelementptr inbounds nuw %struct.decNumber, ptr %36, i32 0, i32 2
  store i8 0, ptr %37, align 4, !tbaa !10
  %38 = load ptr, ptr %4, align 8, !tbaa !4
  %39 = getelementptr inbounds nuw %struct.decContext, ptr %38, i32 0, i32 1
  %40 = load i32, ptr %39, align 4, !tbaa !39
  %41 = load ptr, ptr %4, align 8, !tbaa !4
  %42 = getelementptr inbounds nuw %struct.decContext, ptr %41, i32 0, i32 0
  %43 = load i32, ptr %42, align 4, !tbaa !33
  %44 = sub nsw i32 %40, %43
  %45 = add nsw i32 %44, 1
  %46 = load ptr, ptr %3, align 8, !tbaa !4
  %47 = getelementptr inbounds nuw %struct.decNumber, ptr %46, i32 0, i32 1
  store i32 %45, ptr %47, align 4, !tbaa !19
  call void @llvm.lifetime.end.p0(i64 4, ptr %6) #7
  call void @llvm.lifetime.end.p0(i64 8, ptr %5) #7
  ret void
}

; Function Attrs: nounwind uwtable
define dso_local ptr @decNumberZero(ptr noundef %0) #0 {
  %2 = alloca ptr, align 8
  store ptr %0, ptr %2, align 8, !tbaa !4
  %3 = load ptr, ptr %2, align 8, !tbaa !4
  %4 = getelementptr inbounds nuw %struct.decNumber, ptr %3, i32 0, i32 2
  store i8 0, ptr %4, align 4, !tbaa !10
  %5 = load ptr, ptr %2, align 8, !tbaa !4
  %6 = getelementptr inbounds nuw %struct.decNumber, ptr %5, i32 0, i32 1
  store i32 0, ptr %6, align 4, !tbaa !19
  %7 = load ptr, ptr %2, align 8, !tbaa !4
  %8 = getelementptr inbounds nuw %struct.decNumber, ptr %7, i32 0, i32 0
  store i32 1, ptr %8, align 4, !tbaa !18
  %9 = load ptr, ptr %2, align 8, !tbaa !4
  %10 = getelementptr inbounds nuw %struct.decNumber, ptr %9, i32 0, i32 3
  %11 = getelementptr inbounds [1 x i16], ptr %10, i64 0, i64 0
  store i16 0, ptr %11, align 2, !tbaa !14
  %12 = load ptr, ptr %2, align 8, !tbaa !4
  ret ptr %12
}

; Function Attrs: nounwind uwtable
define internal void @decSetOverflow(ptr noundef %0, ptr noundef %1, ptr noundef %2) #0 {
  %4 = alloca ptr, align 8
  %5 = alloca ptr, align 8
  %6 = alloca ptr, align 8
  %7 = alloca i8, align 1
  %8 = alloca i8, align 1
  %9 = alloca i32, align 4
  %10 = alloca i32, align 4
  store ptr %0, ptr %4, align 8, !tbaa !4
  store ptr %1, ptr %5, align 8, !tbaa !4
  store ptr %2, ptr %6, align 8, !tbaa !40
  call void @llvm.lifetime.start.p0(i64 1, ptr %7) #7
  store i8 0, ptr %7, align 1, !tbaa !25
  call void @llvm.lifetime.start.p0(i64 1, ptr %8) #7
  %11 = load ptr, ptr %4, align 8, !tbaa !4
  %12 = getelementptr inbounds nuw %struct.decNumber, ptr %11, i32 0, i32 2
  %13 = load i8, ptr %12, align 4, !tbaa !10
  %14 = zext i8 %13 to i32
  %15 = and i32 %14, 128
  %16 = trunc i32 %15 to i8
  store i8 %16, ptr %8, align 1, !tbaa !25
  %17 = load ptr, ptr %4, align 8, !tbaa !4
  %18 = getelementptr inbounds nuw %struct.decNumber, ptr %17, i32 0, i32 3
  %19 = getelementptr inbounds [1 x i16], ptr %18, i64 0, i64 0
  %20 = load i16, ptr %19, align 2, !tbaa !14
  %21 = zext i16 %20 to i32
  %22 = icmp eq i32 %21, 0
  br i1 %22, label %23, label %64

23:                                               ; preds = %3
  %24 = load ptr, ptr %4, align 8, !tbaa !4
  %25 = getelementptr inbounds nuw %struct.decNumber, ptr %24, i32 0, i32 0
  %26 = load i32, ptr %25, align 4, !tbaa !18
  %27 = icmp eq i32 %26, 1
  br i1 %27, label %28, label %64

28:                                               ; preds = %23
  %29 = load ptr, ptr %4, align 8, !tbaa !4
  %30 = getelementptr inbounds nuw %struct.decNumber, ptr %29, i32 0, i32 2
  %31 = load i8, ptr %30, align 4, !tbaa !10
  %32 = zext i8 %31 to i32
  %33 = and i32 %32, 112
  %34 = icmp eq i32 %33, 0
  br i1 %34, label %35, label %64

35:                                               ; preds = %28
  call void @llvm.lifetime.start.p0(i64 4, ptr %9) #7
  %36 = load ptr, ptr %5, align 8, !tbaa !4
  %37 = getelementptr inbounds nuw %struct.decContext, ptr %36, i32 0, i32 1
  %38 = load i32, ptr %37, align 4, !tbaa !39
  store i32 %38, ptr %9, align 4, !tbaa !8
  %39 = load ptr, ptr %5, align 8, !tbaa !4
  %40 = getelementptr inbounds nuw %struct.decContext, ptr %39, i32 0, i32 6
  %41 = load i8, ptr %40, align 4, !tbaa !35
  %42 = icmp ne i8 %41, 0
  br i1 %42, label %43, label %50

43:                                               ; preds = %35
  %44 = load ptr, ptr %5, align 8, !tbaa !4
  %45 = getelementptr inbounds nuw %struct.decContext, ptr %44, i32 0, i32 0
  %46 = load i32, ptr %45, align 4, !tbaa !33
  %47 = sub nsw i32 %46, 1
  %48 = load i32, ptr %9, align 4, !tbaa !8
  %49 = sub nsw i32 %48, %47
  store i32 %49, ptr %9, align 4, !tbaa !8
  br label %50

50:                                               ; preds = %43, %35
  %51 = load ptr, ptr %4, align 8, !tbaa !4
  %52 = getelementptr inbounds nuw %struct.decNumber, ptr %51, i32 0, i32 1
  %53 = load i32, ptr %52, align 4, !tbaa !19
  %54 = load i32, ptr %9, align 4, !tbaa !8
  %55 = icmp sgt i32 %53, %54
  br i1 %55, label %56, label %63

56:                                               ; preds = %50
  %57 = load i32, ptr %9, align 4, !tbaa !8
  %58 = load ptr, ptr %4, align 8, !tbaa !4
  %59 = getelementptr inbounds nuw %struct.decNumber, ptr %58, i32 0, i32 1
  store i32 %57, ptr %59, align 4, !tbaa !19
  %60 = load ptr, ptr %6, align 8, !tbaa !40
  %61 = load i32, ptr %60, align 4, !tbaa !8
  %62 = or i32 %61, 1024
  store i32 %62, ptr %60, align 4, !tbaa !8
  br label %63

63:                                               ; preds = %56, %50
  store i32 1, ptr %10, align 4
  call void @llvm.lifetime.end.p0(i64 4, ptr %9) #7
  br label %103

64:                                               ; preds = %28, %23, %3
  %65 = load ptr, ptr %4, align 8, !tbaa !4
  %66 = call ptr @decNumberZero(ptr noundef %65)
  %67 = load ptr, ptr %5, align 8, !tbaa !4
  %68 = getelementptr inbounds nuw %struct.decContext, ptr %67, i32 0, i32 3
  %69 = load i32, ptr %68, align 4, !tbaa !45
  switch i32 %69, label %82 [
    i32 5, label %70
    i32 7, label %71
    i32 0, label %72
    i32 6, label %77
  ]

70:                                               ; preds = %64
  store i8 1, ptr %7, align 1, !tbaa !25
  br label %83

71:                                               ; preds = %64
  store i8 1, ptr %7, align 1, !tbaa !25
  br label %83

72:                                               ; preds = %64
  %73 = load i8, ptr %8, align 1, !tbaa !25
  %74 = icmp ne i8 %73, 0
  br i1 %74, label %75, label %76

75:                                               ; preds = %72
  store i8 1, ptr %7, align 1, !tbaa !25
  br label %76

76:                                               ; preds = %75, %72
  br label %83

77:                                               ; preds = %64
  %78 = load i8, ptr %8, align 1, !tbaa !25
  %79 = icmp ne i8 %78, 0
  br i1 %79, label %81, label %80

80:                                               ; preds = %77
  store i8 1, ptr %7, align 1, !tbaa !25
  br label %81

81:                                               ; preds = %80, %77
  br label %83

82:                                               ; preds = %64
  br label %83

83:                                               ; preds = %82, %81, %76, %71, %70
  %84 = load i8, ptr %7, align 1, !tbaa !25
  %85 = icmp ne i8 %84, 0
  br i1 %85, label %86, label %92

86:                                               ; preds = %83
  %87 = load ptr, ptr %4, align 8, !tbaa !4
  %88 = load ptr, ptr %5, align 8, !tbaa !4
  call void @decSetMaxValue(ptr noundef %87, ptr noundef %88)
  %89 = load i8, ptr %8, align 1, !tbaa !25
  %90 = load ptr, ptr %4, align 8, !tbaa !4
  %91 = getelementptr inbounds nuw %struct.decNumber, ptr %90, i32 0, i32 2
  store i8 %89, ptr %91, align 4, !tbaa !10
  br label %99

92:                                               ; preds = %83
  %93 = load i8, ptr %8, align 1, !tbaa !25
  %94 = zext i8 %93 to i32
  %95 = or i32 %94, 64
  %96 = trunc i32 %95 to i8
  %97 = load ptr, ptr %4, align 8, !tbaa !4
  %98 = getelementptr inbounds nuw %struct.decNumber, ptr %97, i32 0, i32 2
  store i8 %96, ptr %98, align 4, !tbaa !10
  br label %99

99:                                               ; preds = %92, %86
  %100 = load ptr, ptr %6, align 8, !tbaa !40
  %101 = load i32, ptr %100, align 4, !tbaa !8
  %102 = or i32 %101, 2592
  store i32 %102, ptr %100, align 4, !tbaa !8
  store i32 0, ptr %10, align 4
  br label %103

103:                                              ; preds = %99, %63
  call void @llvm.lifetime.end.p0(i64 1, ptr %8) #7
  call void @llvm.lifetime.end.p0(i64 1, ptr %7) #7
  %104 = load i32, ptr %10, align 4
  switch i32 %104, label %106 [
    i32 0, label %105
    i32 1, label %105
  ]

105:                                              ; preds = %103, %103
  ret void

106:                                              ; preds = %103
  unreachable
}