; Function Attrs: nofree norecurse nosync nounwind memory(argmem: readwrite) uwtable
define internal fastcc void @decSetOverflow(ptr noundef captures(none) %0, ptr noundef readonly captures(none) %1, ptr noundef nonnull captures(none) %2) unnamed_addr #0 {
  %4 = getelementptr inbounds nuw i8, ptr %0, i64 8
  %5 = load i8, ptr %4, align 4, !tbaa !4
  %6 = and i8 %5, -128
  %7 = getelementptr inbounds nuw i8, ptr %0, i64 10
  %8 = load i16, ptr %7, align 2, !tbaa !11
  %9 = icmp eq i16 %8, 0
  br i1 %9, label %10, label %28

10:                                               ; preds = %3
  %11 = load i32, ptr %0, align 4, !tbaa !10
  %12 = icmp eq i32 %11, 1
  %13 = and i8 %5, 112
  %14 = icmp eq i8 %13, 0
  %or.cond = select i1 %12, i1 %14, i1 false
  br i1 %or.cond, label %15, label %28

15:                                               ; preds = %10
  %16 = getelementptr inbounds nuw i8, ptr %1, i64 4
  %17 = load i32, ptr %16, align 4, !tbaa !31
  %18 = getelementptr inbounds nuw i8, ptr %1, i64 24
  %19 = load i8, ptr %18, align 4, !tbaa !27
  %.not27 = icmp eq i8 %19, 0
  br i1 %.not27, label %23, label %20

20:                                               ; preds = %15
  %21 = load i32, ptr %1, align 4, !tbaa !25
  %.neg33 = add i32 %17, 1
  %22 = sub i32 %.neg33, %21
  br label %23

23:                                               ; preds = %20, %15
  %.0 = phi i32 [ %22, %20 ], [ %17, %15 ]
  %24 = getelementptr inbounds nuw i8, ptr %0, i64 4
  %25 = load i32, ptr %24, align 4, !tbaa !9
  %26 = icmp sgt i32 %25, %.0
  br i1 %26, label %27, label %51

27:                                               ; preds = %23
  store i32 %.0, ptr %24, align 4, !tbaa !9
  br label %.sink.split

28:                                               ; preds = %10, %3
  %29 = getelementptr inbounds nuw i8, ptr %0, i64 4
  store i32 0, ptr %29, align 4, !tbaa !9
  store i32 1, ptr %0, align 4, !tbaa !10
  store i16 0, ptr %7, align 2, !tbaa !11
  %30 = getelementptr inbounds nuw i8, ptr %1, i64 12
  %31 = load i32, ptr %30, align 4, !tbaa !35
  switch i32 %31, label %.critedge [
    i32 5, label %.critedge31
    i32 7, label %.critedge31
    i32 0, label %32
    i32 6, label %33
  ]

32:                                               ; preds = %28
  %.not25 = icmp eq i8 %6, 0
  br i1 %.not25, label %.critedge, label %.critedge31

33:                                               ; preds = %28
  %.not.not = icmp eq i8 %6, 0
  br i1 %.not.not, label %.critedge31, label %.critedge

.critedge31:                                      ; preds = %32, %28, %28, %33
  %34 = load i32, ptr %1, align 4, !tbaa !25
  store i32 %34, ptr %0, align 4, !tbaa !10
  %35 = icmp sgt i32 %34, 3
  br i1 %35, label %.lr.ph.i, label %decSetMaxValue.exit

.lr.ph.i:                                         ; preds = %.critedge31, %.lr.ph.i
  %.015.i = phi i32 [ %36, %.lr.ph.i ], [ %34, %.critedge31 ]
  %.01314.i = phi ptr [ %37, %.lr.ph.i ], [ %7, %.critedge31 ]
  store i16 999, ptr %.01314.i, align 2, !tbaa !11
  %36 = add nsw i32 %.015.i, -3
  %37 = getelementptr inbounds nuw i8, ptr %.01314.i, i64 2
  %38 = icmp samesign ugt i32 %.015.i, 6
  br i1 %38, label %.lr.ph.i, label %decSetMaxValue.exit

decSetMaxValue.exit:                              ; preds = %.lr.ph.i, %.critedge31
  %.013.lcssa.i = phi ptr [ %7, %.critedge31 ], [ %37, %.lr.ph.i ]
  %.0.lcssa.i = phi i32 [ %34, %.critedge31 ], [ %36, %.lr.ph.i ]
  %39 = sext i32 %.0.lcssa.i to i64
  %40 = getelementptr inbounds [10 x i32], ptr @DECPOWERS, i64 0, i64 %39
  %41 = load i32, ptr %40, align 4, !tbaa !16
  %42 = trunc i32 %41 to i16
  %43 = add i16 %42, -1
  store i16 %43, ptr %.013.lcssa.i, align 2, !tbaa !11
  %44 = getelementptr inbounds nuw i8, ptr %1, i64 4
  %45 = load i32, ptr %44, align 4, !tbaa !31
  %reass.sub = sub i32 %45, %34
  %46 = add i32 %reass.sub, 1
  store i32 %46, ptr %29, align 4, !tbaa !9
  br label %48

.critedge:                                        ; preds = %32, %28, %33
  %47 = or disjoint i8 %6, 64
  br label %48

48:                                               ; preds = %.critedge, %decSetMaxValue.exit
  %storemerge = phi i8 [ %47, %.critedge ], [ %6, %decSetMaxValue.exit ]
  store i8 %storemerge, ptr %4, align 4, !tbaa !4
  br label %.sink.split

.sink.split:                                      ; preds = %48, %27
  %.sink38 = phi i32 [ 1024, %27 ], [ 2592, %48 ]
  %49 = load i32, ptr %2, align 4, !tbaa !16
  %50 = or i32 %49, %.sink38
  store i32 %50, ptr %2, align 4, !tbaa !16
  br label %51

51:                                               ; preds = %.sink.split, %23
  ret void
}